target datalayout = "e-m:e-p270:32:32-p271:32:32-p272:64:64-i64:64-i128:128-f80:128-n8:16:32:64-S128"
target triple = "x86_64-pc-linux-gnu"

%class.LibRaw = type { ptr, %struct.libraw_data_t, ptr, %struct.libraw_internal_data_t, [2048 x %struct.decode], ptr, ptr, [10 x %struct.tiff_ifd_t], %class.libraw_memmgr, %struct.libraw_callbacks_t, { i64, i64 }, { i64, i64 }, { i64, i64 }, ptr, ptr, ptr, i64, ptr, ptr, ptr, ptr }
%struct.libraw_data_t = type { ptr, %struct.libraw_image_sizes_t, %struct.libraw_iparams_t, %struct.libraw_lensinfo_t, %struct.libraw_makernotes_t, %struct.libraw_shootinginfo_t, %struct.libraw_output_params_t, %struct.libraw_raw_unpack_params_t, i32, i32, %struct.libraw_colordata_t, %struct.libraw_imgother_t, %struct.libraw_thumbnail_t, %struct.libraw_thumbnail_list_t, %struct.libraw_rawdata_t, ptr }
%struct.libraw_image_sizes_t = type { i16, i16, i16, i16, i16, i16, i16, i16, i32, double, i32, [8 x [4 x i32]], i16, [2 x %struct.libraw_raw_inset_crop_t] }
%struct.libraw_raw_inset_crop_t = type { i16, i16, i16, i16 }
%struct.libraw_iparams_t = type { [4 x i8], [64 x i8], [64 x i8], [64 x i8], [64 x i8], [64 x i8], i32, i32, i32, i32, i32, i32, [6 x [6 x i8]], [6 x [6 x i8]], [5 x i8], i32, ptr }
%struct.libraw_lensinfo_t = type { float, float, float, float, float, [128 x i8], [128 x i8], [128 x i8], [128 x i8], i16, %struct.libraw_nikonlens_t, %struct.libraw_dnglens_t, %struct.libraw_makernotes_lens_t }
%struct.libraw_nikonlens_t = type { float, i8, i8, i8, i8 }
%struct.libraw_dnglens_t = type { float, float, float, float }
%struct.libraw_makernotes_lens_t = type { i64, [128 x i8], i16, i16, i64, i16, i16, [64 x i8], i16, [16 x i8], [16 x i8], float, float, float, float, float, float, float, float, float, float, float, float, float, float, float, i64, [128 x i8], i64, [128 x i8], i64, [128 x i8], i16, float }
%struct.libraw_makernotes_t = type { %struct.libraw_canon_makernotes_t, %struct.libraw_nikon_makernotes_t, %struct.libraw_hasselblad_makernotes_t, %struct.libraw_fuji_info_t, %struct.libraw_olympus_makernotes_t, %struct.libraw_sony_info_t, %struct.libraw_kodak_makernotes_t, %struct.libraw_panasonic_makernotes_t, %struct.libraw_pentax_makernotes_t, %struct.libraw_p1_makernotes_t, %struct.libraw_ricoh_makernotes_t, %struct.libraw_samsung_makernotes_t, %struct.libraw_metadata_common_t }
%struct.libraw_canon_makernotes_t = type { i32, i32, i32, i32, [4 x i32], i32, [4 x i32], i16, i16, i8, i16, i16, i16, i16, i16, i16, i16, i16, i16, i16, i16, i16, i16, i32, float, i16, i16, i16, i32, i16, i32, i32, i16, i32, %struct.libraw_area_t, %struct.libraw_area_t, %struct.libraw_area_t, %struct.libraw_area_t, %struct.libraw_area_t, [2 x i16] }
%struct.libraw_area_t = type { i16, i16, i16, i16 }
%struct.libraw_nikon_makernotes_t = type { double, i16, i16, [7 x i8], i8, i8, [13 x i8], [20 x i8], [4 x i8], [4 x i8], [4 x i8], i8, i8, i8, i8, i8, [2 x i8], i8, i8, i8, i8, i8, [4 x i8], [4 x i8], i8, i16, i32, i32, i32, i32, [4 x double], i8, i8, i8, i32, i32, i32, i8, [4 x i16], i16, %struct.libraw_sensor_highspeed_crop_t, i16, i16, i16, i32, [20 x i8], [20 x i8], i32, i16, double, double, double }
%struct.libraw_sensor_highspeed_crop_t = type { i16, i16, i16, i16 }
%struct.libraw_hasselblad_makernotes_t = type { i32, double, [8 x i8], [64 x i8], [64 x i8], i32, i32, i32, i32, [32 x i8], [64 x i8], i32, [2 x i32], [2 x i32], [4 x [3 x double]] }
%struct.libraw_fuji_info_t = type { float, i16, i16, i16, i16, i16, i16, i16, i16, [33 x i8], [33 x i8], float, i16, i16, [2 x i16], i16, i32, i32, i16, [3 x i16], i16, i16, i16, i16, i16, i32, i16, [13 x i8], [5 x i8], [5 x i8], i32, i16, i32, i16, [9 x i16], [32 x i32], i32, i32, i32, [2 x float], i32 }
%struct.libraw_olympus_makernotes_t = type { [6 x i8], i16, [2 x i32], [5 x i16], i16, [2 x i16], i16, i16, [64 x i32], [5 x double], i16, i8, [3 x i16], [3 x i32], i16, i16, i16, i16, double, [4 x i16], [2 x i32], i8, i32, i16, i16 }
%struct.libraw_sony_info_t = type { i16, i8, i8, i32, i8, i32, i8, i8, i16, [2 x i16], i8, i8, i16, [10 x i8], i8, i8, [4 x i16], i16, i8, i8, i8, i16, i32, i16, [2 x i16], i16, i16, i16, i16, i16, i16, i16, i32, float, i16, i32, i32, i16, [20 x i8], i32, i16, i32, i8, i8, i16, i16, i16, i16, i16, i16, i16, i16, i16, i32, i16, [16 x i8], float }
%struct.libraw_kodak_makernotes_t = type { i16, i16, i16, i16, i16, i16, [3 x [3 x float]], [3 x [3 x float]], [3 x [3 x float]], [3 x [3 x float]], [3 x [3 x float]], [3 x [3 x float]], i16, i16, i16, i16, float, float }
%struct.libraw_panasonic_makernotes_t = type { i16, i16, [8 x float], i32, float, [3 x i32], i16, i16, i32, i32 }
%struct.libraw_pentax_makernotes_t = type { [4 x i8], [2 x i16], [2 x i16], i16, i32, i32, i16, i16, i8, i8, i16 }
%struct.libraw_p1_makernotes_t = type { [64 x i8], [64 x i8], [256 x i8], [64 x i8] }
%struct.libraw_ricoh_makernotes_t = type { i16, [2 x i32], [2 x i32], i16, i32, i32, i32, i32, i16, i16, i16, i16, i16, i16, double, double }
%struct.libraw_samsung_makernotes_t = type { [4 x i32], [4 x i32], [2 x i32], [11 x i32], double, i32, [32 x i8] }
%struct.libraw_metadata_common_t = type { float, float, float, float, float, float, float, float, float, float, float, float, float, float, float, float, i16, [128 x i8], float, [4 x %struct.libraw_afinfo_item_t], i32 }
%struct.libraw_afinfo_item_t = type { i32, i16, i32, i32, ptr }
%struct.libraw_shootinginfo_t = type { i16, i16, i16, i16, i16, i16, i16, [64 x i8], [64 x i8] }
%struct.libraw_output_params_t = type { [4 x i32], [4 x i32], [4 x double], [6 x double], [4 x float], float, float, i32, i32, i32, i32, i32, i32, i32, ptr, ptr, ptr, ptr, i32, i32, i32, i32, i32, i32, [4 x i32], i32, i32, float, float, i32, i32, i32, i32, i32, i32, i32, i32, float, float, i32, i32 }
%struct.libraw_raw_unpack_params_t = type { i32, i32, i32, i32, i32, i32, i32, float, [5 x i8], ptr }
%struct.libraw_colordata_t = type { [65536 x i16], [4104 x i32], i32, i32, i32, [4 x i64], float, float, [8 x [8 x i16]], [4 x float], [4 x float], [3 x [4 x float]], [3 x [4 x float]], [3 x [4 x float]], [4 x [3 x float]], %struct.ph1_t, float, float, [64 x i8], [64 x i8], [64 x i8], [64 x i8], [17 x i8], [64 x i8], ptr, i32, [8 x i32], [2 x %struct.libraw_dng_color_t], %struct.libraw_dng_levels_t, [256 x [4 x i32]], [64 x [5 x float]], i32, [2 x %struct.libraw_P1_color_t], i32, i32 }
%struct.ph1_t = type { i32, i32, i32, i32, i32, i32, i32, i32, float }
%struct.libraw_dng_color_t = type { i32, i16, [4 x [4 x float]], [4 x [3 x float]], [3 x [4 x float]] }
%struct.libraw_dng_levels_t = type { i32, [4104 x i32], i32, [4104 x float], float, [4 x i32], [4 x i16], [4 x float], i32, [4 x float], [4 x float], float, float }
%struct.libraw_P1_color_t = type { [9 x float] }
%struct.libraw_imgother_t = type { float, float, float, float, i64, i32, [32 x i32], %struct.libraw_gps_info_t, [512 x i8], [64 x i8], [4 x float] }
%struct.libraw_gps_info_t = type { [3 x float], [3 x float], [3 x float], float, i8, i8, i8, i8, i8 }
%struct.libraw_thumbnail_t = type { i32, i16, i16, i32, i32, ptr }
%struct.libraw_thumbnail_list_t = type { i32, [8 x %struct.libraw_thumbnail_item_t] }
%struct.libraw_thumbnail_item_t = type { i32, i16, i16, i16, i32, i32, i64 }
%struct.libraw_rawdata_t = type { ptr, ptr, ptr, ptr, ptr, ptr, ptr, ptr, ptr, %struct.libraw_iparams_t, %struct.libraw_image_sizes_t, %struct.libraw_internal_output_params_t, %struct.libraw_colordata_t }
%struct.libraw_internal_output_params_t = type { i32, i32, i32, i16, i16 }
%struct.libraw_internal_data_t = type { %struct.internal_data_t, %struct.libraw_internal_output_params_t, %struct.output_data_t, %struct.identify_data_t, %struct.unpacker_data_t }
%struct.internal_data_t = type { ptr, ptr, i32, ptr, i64, i64, [4 x i32] }
%struct.output_data_t = type { ptr, ptr }
%struct.identify_data_t = type { i32, i64, i64, i32, i32, i32 }
%struct.unpacker_data_t = type { i16, [4 x i16], [3 x i16], i32, i64, i64, i64, i64, i64, i64, i32, i32, i32, i32, i32, i32, i32, i32, i32, i32, i32, i32, i32, i32, i32, i32, i32, i64, i32, i32, i32, i32, i32, i32, i32, i32, i32, %struct.pana8_tags_t, [16 x %struct.crx_data_header_t], i32, i32, i16, i16, i32, i32, i32, i32, i32, i32, i32, [20 x i32], i16 }
%struct.pana8_tags_t = type { [6 x i32], [6 x i16], i16, [4 x i16], [17 x i16], [17 x i16], [17 x i16], i16, i16, [5 x i64], [5 x i16], [5 x i32], [5 x i16], [5 x i16] }
%struct.crx_data_header_t = type { i32, i32, i32, i32, i32, i32, i32, i32, i32, i32, i32, i32, i32, i32, i32, i64, i32, ptr, i32, i32, i32, ptr, i32, ptr }
%struct.decode = type { [2 x ptr], i32 }
%struct.tiff_ifd_t = type { i32, i32, i32, i32, i32, i32, i32, i32, i32, i32, i32, i32, i32, i32, i32, ptr, i32, ptr, i32, i32, i32, i32, i32, i32, i32, float, i64, i64, i32, [2 x %struct.libraw_dng_color_t], %struct.libraw_dng_levels_t, i32 }
%class.libraw_memmgr = type <{ ptr, i32, [4 x i8] }>
%struct.libraw_callbacks_t = type { ptr, ptr, ptr, ptr, ptr, ptr, ptr, ptr, ptr, ptr, ptr, ptr, ptr, ptr, ptr, ptr, ptr }
%struct.anon.0 = type { [32 x i8], i16, i16, i16, i16, [6 x i32], i16, i16, i8, i8 }

; Function Attrs: mustprogress uwtable
define void @_ZN6LibRaw14parse_broadcomEv(ptr noundef nonnull align 8 dereferenceable(767680) %0) #0 align 2 {
  %2 = alloca ptr, align 8
  %3 = alloca %struct.anon.0, align 4
  store ptr %0, ptr %2, align 8, !tbaa !6
  %4 = load ptr, ptr %2, align 8
  call void @llvm.lifetime.start.p0(i64 72, ptr %3) #10
  %5 = getelementptr inbounds nuw %struct.anon.0, ptr %3, i32 0, i32 8
  store i8 0, ptr %5, align 4, !tbaa !134
  %6 = getelementptr inbounds nuw %class.LibRaw, ptr %4, i32 0, i32 3
  %7 = getelementptr inbounds nuw %struct.libraw_internal_data_t, ptr %6, i32 0, i32 0
  %8 = getelementptr inbounds nuw %struct.internal_data_t, ptr %7, i32 0, i32 0
  %9 = load ptr, ptr %8, align 8, !tbaa !11
  %10 = load ptr, ptr %9, align 8, !tbaa !73
  %11 = getelementptr inbounds ptr, ptr %10, i64 4
  %12 = load ptr, ptr %11, align 8
  %13 = call noundef i32 %12(ptr noundef nonnull align 8 dereferenceable(8) %9, i64 noundef 144, i32 noundef 1)
  %14 = getelementptr inbounds nuw %class.LibRaw, ptr %4, i32 0, i32 3
  %15 = getelementptr inbounds nuw %struct.libraw_internal_data_t, ptr %14, i32 0, i32 0
  %16 = getelementptr inbounds nuw %struct.internal_data_t, ptr %15, i32 0, i32 0
  %17 = load ptr, ptr %16, align 8, !tbaa !11
  %18 = load ptr, ptr %17, align 8, !tbaa !73
  %19 = getelementptr inbounds ptr, ptr %18, i64 3
  %20 = load ptr, ptr %19, align 8
  %21 = call noundef i32 %20(ptr noundef nonnull align 8 dereferenceable(8) %17, ptr noundef %3, i64 noundef 1, i64 noundef 72)
  %22 = getelementptr inbounds nuw %struct.anon.0, ptr %3, i32 0, i32 1
  %23 = load i16, ptr %22, align 4, !tbaa !136
  %24 = zext i16 %23 to i32
  %25 = getelementptr inbounds nuw %struct.anon.0, ptr %3, i32 0, i32 3
  %26 = load i16, ptr %25, align 4, !tbaa !137
  %27 = zext i16 %26 to i32
  %28 = add nsw i32 %24, %27
  %29 = mul nsw i32 %28, 5
  %30 = add nsw i32 %29, 3
  %31 = ashr i32 %30, 2
  %32 = add nsw i32 %31, 31
  %33 = and i32 %32, -32
  %34 = trunc i32 %33 to i16
  %35 = getelementptr inbounds nuw %class.LibRaw, ptr %4, i32 0, i32 3
  %36 = getelementptr inbounds nuw %struct.libraw_internal_data_t, ptr %35, i32 0, i32 4
  %37 = getelementptr inbounds nuw %struct.unpacker_data_t, ptr %36, i32 0, i32 51
  store i16 %34, ptr %37, align 8, !tbaa !138
  %38 = getelementptr inbounds nuw %struct.anon.0, ptr %3, i32 0, i32 1
  %39 = load i16, ptr %38, align 4, !tbaa !136
  %40 = getelementptr inbounds nuw %class.LibRaw, ptr %4, i32 0, i32 1
  %41 = getelementptr inbounds nuw %struct.libraw_data_t, ptr %40, i32 0, i32 1
  %42 = getelementptr inbounds nuw %struct.libraw_image_sizes_t, ptr %41, i32 0, i32 3
  store i16 %39, ptr %42, align 2, !tbaa !102
  %43 = getelementptr inbounds nuw %class.LibRaw, ptr %4, i32 0, i32 1
  %44 = getelementptr inbounds nuw %struct.libraw_data_t, ptr %43, i32 0, i32 1
  %45 = getelementptr inbounds nuw %struct.libraw_image_sizes_t, ptr %44, i32 0, i32 1
  store i16 %39, ptr %45, align 2, !tbaa !89
  %46 = getelementptr inbounds nuw %struct.anon.0, ptr %3, i32 0, i32 2
  %47 = load i16, ptr %46, align 2, !tbaa !139
  %48 = getelementptr inbounds nuw %class.LibRaw, ptr %4, i32 0, i32 1
  %49 = getelementptr inbounds nuw %struct.libraw_data_t, ptr %48, i32 0, i32 1
  %50 = getelementptr inbounds nuw %struct.libraw_image_sizes_t, ptr %49, i32 0, i32 2
  store i16 %47, ptr %50, align 4, !tbaa !101
  %51 = getelementptr inbounds nuw %class.LibRaw, ptr %4, i32 0, i32 1
  %52 = getelementptr inbounds nuw %struct.libraw_data_t, ptr %51, i32 0, i32 1
  %53 = getelementptr inbounds nuw %struct.libraw_image_sizes_t, ptr %52, i32 0, i32 0
  store i16 %47, ptr %53, align 8, !tbaa !90
  %54 = getelementptr inbounds nuw %class.LibRaw, ptr %4, i32 0, i32 1
  %55 = getelementptr inbounds nuw %struct.libraw_data_t, ptr %54, i32 0, i32 2
  %56 = getelementptr inbounds nuw %struct.libraw_iparams_t, ptr %55, i32 0, i32 11
  store i32 370546198, ptr %56, align 8, !tbaa !92
  %57 = getelementptr inbounds nuw %struct.anon.0, ptr %3, i32 0, i32 8
  %58 = load i8, ptr %57, align 4, !tbaa !134
  %59 = zext i8 %58 to i32
  switch i32 %59, label %72 [
    i32 0, label %60
    i32 1, label %64
    i32 3, label %68
  ]

60:                                               ; preds = %1
  %61 = getelementptr inbounds nuw %class.LibRaw, ptr %4, i32 0, i32 1
  %62 = getelementptr inbounds nuw %struct.libraw_data_t, ptr %61, i32 0, i32 2
  %63 = getelementptr inbounds nuw %struct.libraw_iparams_t, ptr %62, i32 0, i32 11
  store i32 -1802201964, ptr %63, align 8, !tbaa !92
  br label %72

64:                                               ; preds = %1
  %65 = getelementptr inbounds nuw %class.LibRaw, ptr %4, i32 0, i32 1
  %66 = getelementptr inbounds nuw %struct.libraw_data_t, ptr %65, i32 0, i32 2
  %67 = getelementptr inbounds nuw %struct.libraw_iparams_t, ptr %66, i32 0, i32 11
  store i32 1229539657, ptr %67, align 8, !tbaa !92
  br label %72

68:                                               ; preds = %1
  %69 = getelementptr inbounds nuw %class.LibRaw, ptr %4, i32 0, i32 1
  %70 = getelementptr inbounds nuw %struct.libraw_data_t, ptr %69, i32 0, i32 2
  %71 = getelementptr inbounds nuw %struct.libraw_iparams_t, ptr %70, i32 0, i32 11
  store i32 1633771873, ptr %71, align 8, !tbaa !92
  br label %72

72:                                               ; preds = %1, %68, %64, %60
  call void @llvm.lifetime.end.p0(i64 72, ptr %3) #10
  ret void
}