; Function Attrs: mustprogress uwtable
define void @_ZN6LibRaw14parse_broadcomEv(ptr noundef nonnull align 8 captures(none) dereferenceable(767680) initializes((16, 24), (544, 548), (384160, 384162)) %0) local_unnamed_addr #0 align 2 {
  %2 = alloca %struct.anon.0, align 4
  call void @llvm.lifetime.start.p0(i64 72, ptr nonnull %2) #13
  %3 = getelementptr inbounds nuw i8, ptr %2, i64 68
  store i8 0, ptr %3, align 4, !tbaa !131
  %4 = getelementptr inbounds nuw i8, ptr %0, i64 381416
  %5 = load ptr, ptr %4, align 8, !tbaa !6
  %6 = load ptr, ptr %5, align 8, !tbaa !71
  %7 = getelementptr inbounds nuw i8, ptr %6, i64 32
  %8 = load ptr, ptr %7, align 8
  %9 = tail call noundef i32 %8(ptr noundef nonnull align 8 dereferenceable(8) %5, i64 noundef 144, i32 noundef 1)
  %10 = load ptr, ptr %4, align 8, !tbaa !6
  %11 = load ptr, ptr %10, align 8, !tbaa !71
  %12 = getelementptr inbounds nuw i8, ptr %11, i64 24
  %13 = load ptr, ptr %12, align 8
  %14 = call noundef i32 %13(ptr noundef nonnull align 8 dereferenceable(8) %10, ptr noundef nonnull %2, i64 noundef 1, i64 noundef 72)
  %15 = getelementptr inbounds nuw i8, ptr %2, i64 32
  %16 = load i16, ptr %15, align 4, !tbaa !133
  %17 = zext i16 %16 to i32
  %18 = getelementptr inbounds nuw i8, ptr %2, i64 36
  %19 = load i16, ptr %18, align 4, !tbaa !134
  %20 = zext i16 %19 to i32
  %21 = add nuw nsw i32 %20, %17
  %22 = mul nuw nsw i32 %21, 5
  %23 = add nuw nsw i32 %22, 3
  %24 = lshr i32 %23, 2
  %25 = trunc i32 %24 to i16
  %26 = add i16 %25, 31
  %27 = and i16 %26, -32
  %28 = getelementptr inbounds nuw i8, ptr %0, i64 384160
  store i16 %27, ptr %28, align 8, !tbaa !135
  %29 = getelementptr inbounds nuw i8, ptr %0, i64 16
  %30 = getelementptr inbounds nuw i8, ptr %0, i64 22
  store i16 %16, ptr %30, align 2, !tbaa !99
  %31 = getelementptr inbounds nuw i8, ptr %0, i64 18
  store i16 %16, ptr %31, align 2, !tbaa !86
  %32 = getelementptr inbounds nuw i8, ptr %2, i64 34
  %33 = load i16, ptr %32, align 2, !tbaa !136
  %34 = getelementptr inbounds nuw i8, ptr %0, i64 20
  store i16 %33, ptr %34, align 4, !tbaa !98
  store i16 %33, ptr %29, align 8, !tbaa !87
  %35 = getelementptr inbounds nuw i8, ptr %0, i64 544
  store i32 370546198, ptr %35, align 8, !tbaa !89
  %36 = load i8, ptr %3, align 4, !tbaa !131
  switch i8 %36, label %39 [
    i8 0, label %.sink.split
    i8 1, label %37
    i8 3, label %38
  ]

37:                                               ; preds = %1
  br label %.sink.split

38:                                               ; preds = %1
  br label %.sink.split

.sink.split:                                      ; preds = %1, %37, %38
  %.sink = phi i32 [ 1633771873, %38 ], [ 1229539657, %37 ], [ -1802201964, %1 ]
  store i32 %.sink, ptr %35, align 8, !tbaa !89
  br label %39

39:                                               ; preds = %.sink.split, %1
  call void @llvm.lifetime.end.p0(i64 72, ptr nonnull %2) #13
  ret void
}